target datalayout = "e-m:e-p270:32:32-p271:32:32-p272:64:64-i64:64-i128:128-f80:128-n8:16:32:64-S128"
target triple = "x86_64-pc-linux-gnu"

%struct.OSSL_TIME = type { i64 }
%struct.quic_conn_id_st = type { i8, [20 x i8] }
%struct.wpacket_st = type { ptr, ptr, i64, i64, i64, ptr, i8 }
%struct.validation_token = type { %struct.OSSL_TIME, %struct.quic_conn_id_st, %struct.quic_conn_id_st, i64, ptr, i8 }
%struct.buf_mem_st = type { i64, ptr, i64, i64 }

; Function Attrs: nounwind uwtable
define internal i32 @marshal_validation_token(ptr noundef %0, ptr noundef %1, ptr noundef %2) #0 {
  %4 = alloca i32, align 4
  %5 = alloca ptr, align 8
  %6 = alloca ptr, align 8
  %7 = alloca ptr, align 8
  %8 = alloca %struct.wpacket_st, align 8
  %9 = alloca ptr, align 8
  %10 = alloca i32, align 4
  store ptr %0, ptr %5, align 8, !tbaa !244
  store ptr %1, ptr %6, align 8, !tbaa !39
  store ptr %2, ptr %7, align 8, !tbaa !246
  call void @llvm.lifetime.start.p0(i64 56, ptr %8) #8
  call void @llvm.memset.p0.i64(ptr align 8 %8, i8 0, i64 56, i1 false)
  call void @llvm.lifetime.start.p0(i64 8, ptr %9) #8
  %11 = call ptr @BUF_MEM_new()
  store ptr %11, ptr %9, align 8, !tbaa !247
  %12 = load ptr, ptr %6, align 8, !tbaa !39
  %13 = icmp eq ptr %12, null
  br i1 %13, label %29, label %14

14:                                               ; preds = %3
  %15 = load ptr, ptr %9, align 8, !tbaa !247
  %16 = icmp eq ptr %15, null
  br i1 %16, label %29, label %17

17:                                               ; preds = %14
  %18 = load ptr, ptr %5, align 8, !tbaa !244
  %19 = getelementptr inbounds nuw %struct.validation_token, ptr %18, i32 0, i32 5
  %20 = load i8, ptr %19, align 8, !tbaa !233
  %21 = zext i8 %20 to i32
  %22 = icmp ne i32 %21, 0
  br i1 %22, label %23, label %30

23:                                               ; preds = %17
  %24 = load ptr, ptr %5, align 8, !tbaa !244
  %25 = getelementptr inbounds nuw %struct.validation_token, ptr %24, i32 0, i32 5
  %26 = load i8, ptr %25, align 8, !tbaa !233
  %27 = zext i8 %26 to i32
  %28 = icmp ne i32 %27, 1
  br i1 %28, label %29, label %30

29:                                               ; preds = %23, %14, %3
  store i32 0, ptr %4, align 4
  store i32 1, ptr %10, align 4
  br label %104

30:                                               ; preds = %23, %17
  %31 = load ptr, ptr %9, align 8, !tbaa !247
  %32 = call i32 @WPACKET_init(ptr noundef %8, ptr noundef %31)
  %33 = icmp ne i32 %32, 0
  br i1 %33, label %34, label %94

34:                                               ; preds = %30
  %35 = load ptr, ptr %5, align 8, !tbaa !244
  %36 = getelementptr inbounds nuw %struct.validation_token, ptr %35, i32 0, i32 5
  %37 = load i8, ptr %36, align 8, !tbaa !233
  %38 = zext i8 %37 to i32
  %39 = call i32 @WPACKET_memset(ptr noundef %8, i32 noundef %38, i64 noundef 1)
  %40 = icmp ne i32 %39, 0
  br i1 %40, label %41, label %94

41:                                               ; preds = %34
  %42 = load ptr, ptr %5, align 8, !tbaa !244
  %43 = getelementptr inbounds nuw %struct.validation_token, ptr %42, i32 0, i32 0
  %44 = call i32 @WPACKET_memcpy(ptr noundef %8, ptr noundef %43, i64 noundef 8)
  %45 = icmp ne i32 %44, 0
  br i1 %45, label %46, label %94

46:                                               ; preds = %41
  %47 = load ptr, ptr %5, align 8, !tbaa !244
  %48 = getelementptr inbounds nuw %struct.validation_token, ptr %47, i32 0, i32 5
  %49 = load i8, ptr %48, align 8, !tbaa !233
  %50 = zext i8 %49 to i32
  %51 = icmp ne i32 %50, 0
  br i1 %51, label %52, label %74

52:                                               ; preds = %46
  %53 = load ptr, ptr %5, align 8, !tbaa !244
  %54 = getelementptr inbounds nuw %struct.validation_token, ptr %53, i32 0, i32 1
  %55 = getelementptr inbounds nuw %struct.quic_conn_id_st, ptr %54, i32 0, i32 1
  %56 = load ptr, ptr %5, align 8, !tbaa !244
  %57 = getelementptr inbounds nuw %struct.validation_token, ptr %56, i32 0, i32 1
  %58 = getelementptr inbounds nuw %struct.quic_conn_id_st, ptr %57, i32 0, i32 0
  %59 = load i8, ptr %58, align 8, !tbaa !248
  %60 = zext i8 %59 to i64
  %61 = call i32 @WPACKET_sub_memcpy__(ptr noundef %8, ptr noundef %55, i64 noundef %60, i64 noundef 1)
  %62 = icmp ne i32 %61, 0
  br i1 %62, label %63, label %94

63:                                               ; preds = %52
  %64 = load ptr, ptr %5, align 8, !tbaa !244
  %65 = getelementptr inbounds nuw %struct.validation_token, ptr %64, i32 0, i32 2
  %66 = getelementptr inbounds nuw %struct.quic_conn_id_st, ptr %65, i32 0, i32 1
  %67 = load ptr, ptr %5, align 8, !tbaa !244
  %68 = getelementptr inbounds nuw %struct.validation_token, ptr %67, i32 0, i32 2
  %69 = getelementptr inbounds nuw %struct.quic_conn_id_st, ptr %68, i32 0, i32 0
  %70 = load i8, ptr %69, align 1, !tbaa !237
  %71 = zext i8 %70 to i64
  %72 = call i32 @WPACKET_sub_memcpy__(ptr noundef %8, ptr noundef %66, i64 noundef %71, i64 noundef 1)
  %73 = icmp ne i32 %72, 0
  br i1 %73, label %74, label %94

74:                                               ; preds = %63, %46
  %75 = load ptr, ptr %5, align 8, !tbaa !244
  %76 = getelementptr inbounds nuw %struct.validation_token, ptr %75, i32 0, i32 4
  %77 = load ptr, ptr %76, align 8, !tbaa !236
  %78 = load ptr, ptr %5, align 8, !tbaa !244
  %79 = getelementptr inbounds nuw %struct.validation_token, ptr %78, i32 0, i32 3
  %80 = load i64, ptr %79, align 8, !tbaa !235
  %81 = call i32 @WPACKET_sub_memcpy__(ptr noundef %8, ptr noundef %77, i64 noundef %80, i64 noundef 1)
  %82 = icmp ne i32 %81, 0
  br i1 %82, label %83, label %94

83:                                               ; preds = %74
  %84 = load ptr, ptr %7, align 8, !tbaa !246
  %85 = call i32 @WPACKET_get_total_written(ptr noundef %8, ptr noundef %84)
  %86 = icmp ne i32 %85, 0
  br i1 %86, label %87, label %94

87:                                               ; preds = %83
  %88 = load ptr, ptr %7, align 8, !tbaa !246
  %89 = load i64, ptr %88, align 8, !tbaa !36
  %90 = icmp ugt i64 %89, 169
  br i1 %90, label %94, label %91

91:                                               ; preds = %87
  %92 = call i32 @WPACKET_finish(ptr noundef %8)
  %93 = icmp ne i32 %92, 0
  br i1 %93, label %96, label %94

94:                                               ; preds = %91, %87, %83, %74, %63, %52, %41, %34, %30
  call void @WPACKET_cleanup(ptr noundef %8)
  %95 = load ptr, ptr %9, align 8, !tbaa !247
  call void @BUF_MEM_free(ptr noundef %95)
  store i32 0, ptr %4, align 4
  store i32 1, ptr %10, align 4
  br label %104

96:                                               ; preds = %91
  %97 = load ptr, ptr %6, align 8, !tbaa !39
  %98 = load ptr, ptr %9, align 8, !tbaa !247
  %99 = getelementptr inbounds nuw %struct.buf_mem_st, ptr %98, i32 0, i32 1
  %100 = load ptr, ptr %99, align 8, !tbaa !249
  %101 = load ptr, ptr %7, align 8, !tbaa !246
  %102 = load i64, ptr %101, align 8, !tbaa !36
  call void @llvm.memcpy.p0.p0.i64(ptr align 1 %97, ptr align 1 %100, i64 %102, i1 false)
  %103 = load ptr, ptr %9, align 8, !tbaa !247
  call void @BUF_MEM_free(ptr noundef %103)
  store i32 1, ptr %4, align 4
  store i32 1, ptr %10, align 4
  br label %104

104:                                              ; preds = %96, %94, %29
  call void @llvm.lifetime.end.p0(i64 8, ptr %9) #8
  call void @llvm.lifetime.end.p0(i64 56, ptr %8) #8
  %105 = load i32, ptr %4, align 4
  ret i32 %105
}