; Function Attrs: nounwind uwtable
define internal fastcc range(i32 0, 2) i32 @marshal_validation_token(ptr noundef nonnull %0, ptr noundef nonnull writeonly captures(none) %1, ptr noundef nonnull %2) unnamed_addr #0 {
  %4 = alloca %struct.wpacket_st, align 8
  call void @llvm.lifetime.start.p0(i64 56, ptr nonnull %4) #11
  call void @llvm.memset.p0.i64(ptr noundef nonnull align 8 dereferenceable(56) %4, i8 0, i64 56, i1 false)
  %5 = tail call ptr @BUF_MEM_new() #11
  %6 = icmp eq ptr %5, null
  br i1 %6, label %50, label %7

7:                                                ; preds = %3
  %8 = getelementptr inbounds nuw i8, ptr %0, i64 72
  %9 = load i8, ptr %8, align 8, !tbaa !220
  %switch = icmp ult i8 %9, 2
  br i1 %switch, label %10, label %50

10:                                               ; preds = %7
  %11 = call i32 @WPACKET_init(ptr noundef nonnull %4, ptr noundef nonnull %5) #11
  %.not26 = icmp eq i32 %11, 0
  br i1 %.not26, label %45, label %12

12:                                               ; preds = %10
  %13 = load i8, ptr %8, align 8, !tbaa !220
  %14 = zext i8 %13 to i32
  %15 = call i32 @WPACKET_memset(ptr noundef nonnull %4, i32 noundef %14, i64 noundef 1) #11
  %.not27 = icmp eq i32 %15, 0
  br i1 %.not27, label %45, label %16

16:                                               ; preds = %12
  %17 = call i32 @WPACKET_memcpy(ptr noundef nonnull %4, ptr noundef nonnull %0, i64 noundef 8) #11
  %.not28 = icmp eq i32 %17, 0
  br i1 %.not28, label %45, label %18

18:                                               ; preds = %16
  %19 = load i8, ptr %8, align 8, !tbaa !220
  %.not29 = icmp eq i8 %19, 0
  br i1 %.not29, label %32, label %20

20:                                               ; preds = %18
  %21 = getelementptr inbounds nuw i8, ptr %0, i64 8
  %22 = getelementptr inbounds nuw i8, ptr %0, i64 9
  %23 = load i8, ptr %21, align 8, !tbaa !227
  %24 = zext i8 %23 to i64
  %25 = call i32 @WPACKET_sub_memcpy__(ptr noundef nonnull %4, ptr noundef nonnull %22, i64 noundef %24, i64 noundef 1) #11
  %.not30 = icmp eq i32 %25, 0
  br i1 %.not30, label %45, label %26

26:                                               ; preds = %20
  %27 = getelementptr inbounds nuw i8, ptr %0, i64 29
  %28 = getelementptr inbounds nuw i8, ptr %0, i64 30
  %29 = load i8, ptr %27, align 1, !tbaa !228
  %30 = zext i8 %29 to i64
  %31 = call i32 @WPACKET_sub_memcpy__(ptr noundef nonnull %4, ptr noundef nonnull %28, i64 noundef %30, i64 noundef 1) #11
  %.not31 = icmp eq i32 %31, 0
  br i1 %.not31, label %45, label %32

32:                                               ; preds = %26, %18
  %33 = getelementptr inbounds nuw i8, ptr %0, i64 64
  %34 = load ptr, ptr %33, align 8, !tbaa !222
  %35 = getelementptr inbounds nuw i8, ptr %0, i64 56
  %36 = load i64, ptr %35, align 8, !tbaa !223
  %37 = call i32 @WPACKET_sub_memcpy__(ptr noundef nonnull %4, ptr noundef %34, i64 noundef %36, i64 noundef 1) #11
  %.not32 = icmp eq i32 %37, 0
  br i1 %.not32, label %45, label %38

38:                                               ; preds = %32
  %39 = call i32 @WPACKET_get_total_written(ptr noundef nonnull %4, ptr noundef nonnull %2) #11
  %.not33 = icmp eq i32 %39, 0
  br i1 %.not33, label %45, label %40

40:                                               ; preds = %38
  %41 = load i64, ptr %2, align 8, !tbaa !195
  %42 = icmp ugt i64 %41, 169
  br i1 %42, label %45, label %43

43:                                               ; preds = %40
  %44 = call i32 @WPACKET_finish(ptr noundef nonnull %4) #11
  %.not34 = icmp eq i32 %44, 0
  br i1 %.not34, label %45, label %46

45:                                               ; preds = %43, %40, %38, %32, %26, %20, %16, %12, %10
  call void @WPACKET_cleanup(ptr noundef nonnull %4) #11
  br label %.sink.split

46:                                               ; preds = %43
  %47 = getelementptr inbounds nuw i8, ptr %5, i64 8
  %48 = load ptr, ptr %47, align 8, !tbaa !233
  %49 = load i64, ptr %2, align 8, !tbaa !195
  call void @llvm.memcpy.p0.p0.i64(ptr nonnull align 1 %1, ptr align 1 %48, i64 %49, i1 false)
  br label %.sink.split

.sink.split:                                      ; preds = %45, %46
  %.0.ph = phi i32 [ 1, %46 ], [ 0, %45 ]
  call void @BUF_MEM_free(ptr noundef nonnull %5) #11
  br label %50

50:                                               ; preds = %.sink.split, %7, %3
  %.0 = phi i32 [ 0, %7 ], [ 0, %3 ], [ %.0.ph, %.sink.split ]
  call void @llvm.lifetime.end.p0(i64 56, ptr nonnull %4) #11
  ret i32 %.0
}